; ModuleID = '19/674.c'
source_filename = "19/674.c"
target datalayout = "e-m:e-p270:32:32-p271:32:32-p272:64:64-i64:64-f80:128-n8:16:32:64-S128"
target triple = "x86_64-pc-linux-gnu"

@.str = private unnamed_addr constant [3 x i8] c"%s\00", align 1
@.str.1 = private unnamed_addr constant [4 x i8] c" %s\00", align 1

; Function Attrs: noinline nounwind uwtable
define dso_local void @main() #0 {
  %1 = alloca [100 x i8], align 16
  %2 = alloca [100 x i8], align 16
  %3 = alloca [100 x i8], align 16
  %4 = alloca [20 x [20 x i8]], align 16
  %5 = alloca i32, align 4
  %6 = alloca i32, align 4
  %7 = alloca i32, align 4
  %8 = alloca i32, align 4
  %9 = alloca [100 x i32], align 16
  %10 = getelementptr inbounds [100 x i8], [100 x i8]* %1, i64 0, i64 0
  %11 = call i32 (i8*, ...) bitcast (i32 (...)* @gets to i32 (i8*, ...)*)(i8* %10)
  %12 = getelementptr inbounds [100 x i8], [100 x i8]* %2, i64 0, i64 0
  %13 = call i32 (i8*, ...) bitcast (i32 (...)* @gets to i32 (i8*, ...)*)(i8* %12)
  %14 = getelementptr inbounds [100 x i8], [100 x i8]* %3, i64 0, i64 0
  %15 = call i32 (i8*, ...) bitcast (i32 (...)* @gets to i32 (i8*, ...)*)(i8* %14)
  %16 = getelementptr inbounds [100 x i8], [100 x i8]* %1, i64 0, i64 0
  %17 = call i64 @strlen(i8* %16) #4
  %18 = trunc i64 %17 to i32
  store i32 %18, i32* %5, align 4
  %19 = getelementptr inbounds [100 x i32], [100 x i32]* %9, i64 0, i64 0
  store i32 -1, i32* %19, align 16
  store i32 1, i32* %6, align 4
  store i32 0, i32* %7, align 4
  br label %20

20:                                               ; preds = %39, %0
  %21 = load i32, i32* %7, align 4
  %22 = load i32, i32* %5, align 4
  %23 = icmp slt i32 %21, %22
  br i1 %23, label %24, label %42

24:                                               ; preds = %20
  %25 = load i32, i32* %7, align 4
  %26 = sext i32 %25 to i64
  %27 = getelementptr inbounds [100 x i8], [100 x i8]* %1, i64 0, i64 %26
  %28 = load i8, i8* %27, align 1
  %29 = sext i8 %28 to i32
  %30 = icmp eq i32 %29, 32
  br i1 %30, label %31, label %38

31:                                               ; preds = %24
  %32 = load i32, i32* %7, align 4
  %33 = load i32, i32* %6, align 4
  %34 = sext i32 %33 to i64
  %35 = getelementptr inbounds [100 x i32], [100 x i32]* %9, i64 0, i64 %34
  store i32 %32, i32* %35, align 4
  %36 = load i32, i32* %6, align 4
  %37 = add nsw i32 %36, 1
  store i32 %37, i32* %6, align 4
  br label %38

38:                                               ; preds = %31, %24
  br label %39

39:                                               ; preds = %38
  %40 = load i32, i32* %7, align 4
  %41 = add nsw i32 %40, 1
  store i32 %41, i32* %7, align 4
  br label %20

42:                                               ; preds = %20
  %43 = load i32, i32* %5, align 4
  %44 = load i32, i32* %6, align 4
  %45 = sext i32 %44 to i64
  %46 = getelementptr inbounds [100 x i32], [100 x i32]* %9, i64 0, i64 %45
  store i32 %43, i32* %46, align 4
  store i32 0, i32* %7, align 4
  br label %47

47:                                               ; preds = %102, %42
  %48 = load i32, i32* %7, align 4
  %49 = load i32, i32* %6, align 4
  %50 = icmp slt i32 %48, %49
  br i1 %50, label %51, label %105

51:                                               ; preds = %47
  %52 = load i32, i32* %7, align 4
  %53 = sext i32 %52 to i64
  %54 = getelementptr inbounds [100 x i32], [100 x i32]* %9, i64 0, i64 %53
  %55 = load i32, i32* %54, align 4
  %56 = add nsw i32 %55, 1
  store i32 %56, i32* %8, align 4
  br label %57

57:                                               ; preds = %82, %51
  %58 = load i32, i32* %8, align 4
  %59 = load i32, i32* %7, align 4
  %60 = add nsw i32 %59, 1
  %61 = sext i32 %60 to i64
  %62 = getelementptr inbounds [100 x i32], [100 x i32]* %9, i64 0, i64 %61
  %63 = load i32, i32* %62, align 4
  %64 = icmp slt i32 %58, %63
  br i1 %64, label %65, label %85

65:                                               ; preds = %57
  %66 = load i32, i32* %8, align 4
  %67 = sext i32 %66 to i64
  %68 = getelementptr inbounds [100 x i8], [100 x i8]* %1, i64 0, i64 %67
  %69 = load i8, i8* %68, align 1
  %70 = load i32, i32* %7, align 4
  %71 = sext i32 %70 to i64
  %72 = getelementptr inbounds [20 x [20 x i8]], [20 x [20 x i8]]* %4, i64 0, i64 %71
  %73 = load i32, i32* %8, align 4
  %74 = load i32, i32* %7, align 4
  %75 = sext i32 %74 to i64
  %76 = getelementptr inbounds [100 x i32], [100 x i32]* %9, i64 0, i64 %75
  %77 = load i32, i32* %76, align 4
  %78 = sub nsw i32 %73, %77
  %79 = sub nsw i32 %78, 1
  %80 = sext i32 %79 to i64
  %81 = getelementptr inbounds [20 x i8], [20 x i8]* %72, i64 0, i64 %80
  store i8 %69, i8* %81, align 1
  br label %82

82:                                               ; preds = %65
  %83 = load i32, i32* %8, align 4
  %84 = add nsw i32 %83, 1
  store i32 %84, i32* %8, align 4
  br label %57

85:                                               ; preds = %57
  %86 = load i32, i32* %7, align 4
  %87 = sext i32 %86 to i64
  %88 = getelementptr inbounds [20 x [20 x i8]], [20 x [20 x i8]]* %4, i64 0, i64 %87
  %89 = load i32, i32* %7, align 4
  %90 = add nsw i32 %89, 1
  %91 = sext i32 %90 to i64
  %92 = getelementptr inbounds [100 x i32], [100 x i32]* %9, i64 0, i64 %91
  %93 = load i32, i32* %92, align 4
  %94 = load i32, i32* %7, align 4
  %95 = sext i32 %94 to i64
  %96 = getelementptr inbounds [100 x i32], [100 x i32]* %9, i64 0, i64 %95
  %97 = load i32, i32* %96, align 4
  %98 = sub nsw i32 %93, %97
  %99 = sub nsw i32 %98, 1
  %100 = sext i32 %99 to i64
  %101 = getelementptr inbounds [20 x i8], [20 x i8]* %88, i64 0, i64 %100
  store i8 0, i8* %101, align 1
  br label %102

102:                                              ; preds = %85
  %103 = load i32, i32* %7, align 4
  %104 = add nsw i32 %103, 1
  store i32 %104, i32* %7, align 4
  br label %47

105:                                              ; preds = %47
  store i32 0, i32* %7, align 4
  br label %106

106:                                              ; preds = %126, %105
  %107 = load i32, i32* %7, align 4
  %108 = load i32, i32* %6, align 4
  %109 = icmp slt i32 %107, %108
  br i1 %109, label %110, label %129

110:                                              ; preds = %106
  %111 = load i32, i32* %7, align 4
  %112 = sext i32 %111 to i64
  %113 = getelementptr inbounds [20 x [20 x i8]], [20 x [20 x i8]]* %4, i64 0, i64 %112
  %114 = getelementptr inbounds [20 x i8], [20 x i8]* %113, i64 0, i64 0
  %115 = getelementptr inbounds [100 x i8], [100 x i8]* %2, i64 0, i64 0
  %116 = call i32 @strcmp(i8* %114, i8* %115) #4
  %117 = icmp eq i32 %116, 0
  br i1 %117, label %118, label %125

118:                                              ; preds = %110
  %119 = load i32, i32* %7, align 4
  %120 = sext i32 %119 to i64
  %121 = getelementptr inbounds [20 x [20 x i8]], [20 x [20 x i8]]* %4, i64 0, i64 %120
  %122 = getelementptr inbounds [20 x i8], [20 x i8]* %121, i64 0, i64 0
  %123 = getelementptr inbounds [100 x i8], [100 x i8]* %3, i64 0, i64 0
  %124 = call i8* @strcpy(i8* %122, i8* %123) #5
  br label %125

125:                                              ; preds = %118, %110
  br label %126

126:                                              ; preds = %125
  %127 = load i32, i32* %7, align 4
  %128 = add nsw i32 %127, 1
  store i32 %128, i32* %7, align 4
  br label %106

129:                                              ; preds = %106
  %130 = getelementptr inbounds [20 x [20 x i8]], [20 x [20 x i8]]* %4, i64 0, i64 0
  %131 = getelementptr inbounds [20 x i8], [20 x i8]* %130, i64 0, i64 0
  %132 = call i32 (i8*, ...) @printf(i8* getelementptr inbounds ([3 x i8], [3 x i8]* @.str, i64 0, i64 0), i8* %131)
  store i32 1, i32* %7, align 4
  br label %133

133:                                              ; preds = %143, %129
  %134 = load i32, i32* %7, align 4
  %135 = load i32, i32* %6, align 4
  %136 = icmp slt i32 %134, %135
  br i1 %136, label %137, label %146

137:                                              ; preds = %133
  %138 = load i32, i32* %7, align 4
  %139 = sext i32 %138 to i64
  %140 = getelementptr inbounds [20 x [20 x i8]], [20 x [20 x i8]]* %4, i64 0, i64 %139
  %141 = getelementptr inbounds [20 x i8], [20 x i8]* %140, i64 0, i64 0
  %142 = call i32 (i8*, ...) @printf(i8* getelementptr inbounds ([4 x i8], [4 x i8]* @.str.1, i64 0, i64 0), i8* %141)
  br label %143

143:                                              ; preds = %137
  %144 = load i32, i32* %7, align 4
  %145 = add nsw i32 %144, 1
  store i32 %145, i32* %7, align 4
  br label %133

146:                                              ; preds = %133
  ret void
}

declare dso_local i32 @gets(...) #1

; Function Attrs: nounwind readonly
declare dso_local i64 @strlen(i8*) #2

; Function Attrs: nounwind readonly
declare dso_local i32 @strcmp(i8*, i8*) #2

; Function Attrs: nounwind
declare dso_local i8* @strcpy(i8*, i8*) #3

declare dso_local i32 @printf(i8*, ...) #1


!llvm.module.flags = !{!0}
!llvm.ident = !{!1}

!0 = !{i32 1, !"wchar_size", i32 4}
!1 = !{!"clang version 10.0.0-4ubuntu1 "}
